0000000000004c80 P clock
0000000000004c90 P __cxa_begin_catch
0000000000004ca0 P _ZN2cv3MatC1ERKS0_RKNS_5Rect_IiEE
0000000000004cb0 P _ZN2cv8cvtColorERKNS_11_InputArrayERKNS_12_OutputArrayEii
0000000000004cc0 P memcpy
0000000000004cd0 P _ZN2cv17CascadeClassifierD1Ev
0000000000004ce0 P _ZN2cv3Mat8copySizeERKS0_
0000000000004cf0 P _ZNKSt7__cxx1112basic_stringIcSt11char_traitsIcESaIcEE5c_strEv
0000000000004d00 P _ZNSt7__cxx1112basic_stringIcSt11char_traitsIcESaIcEEC1ERKS4_
0000000000004d10 P _ZN2cv6imreadERKNS_6StringEi
0000000000004d20 P _ZNSt14basic_ofstreamIcSt11char_traitsIcEEC1Ev
0000000000004d30 P _ZNK2cv17CommandLineParser10getByIndexEibiPv
0000000000004d40 P _ZN2cv9rectangleERKNS_17_InputOutputArrayENS_6Point_IiEES4_RKNS_7Scalar_IdEEiii
0000000000004d50 P _ZN2cv16getTickFrequencyEv
0000000000004d60 P _ZN2cv12equalizeHistERKNS_11_InputArrayERKNS_12_OutputArrayE
0000000000004d70 P _ZN2cv6String8allocateEm
0000000000004d80 P _ZNKSt7__cxx1112basic_stringIcSt11char_traitsIcESaIcEE5emptyEv
0000000000004d90 P _ZNKSt7__cxx1112basic_stringIcSt11char_traitsIcESaIcEE4sizeEv
0000000000004da0 P __stack_chk_fail
0000000000004db0 P _ZStlsIcSt11char_traitsIcESaIcEERSt13basic_ostreamIT_T0_ES7_RKNSt7__cxx1112basic_stringIS4_S5_T1_EE
0000000000004dc0 P _ZNSolsEi
0000000000004dd0 P _ZNK2cv17CommandLineParser5checkEv
0000000000004de0 P _ZNSt7__cxx1112basic_stringIcSt11char_traitsIcESaIcEE6appendEPKcm
0000000000004df0 P _ZN2cv17CommandLineParser5aboutERKNS_6StringE
0000000000004e00 P _ZNSt7__cxx1112basic_stringIcSt11char_traitsIcESaIcEEC1Ev
0000000000004e10 P __cxa_guard_acquire
0000000000004e20 P _ZN2cv6String10deallocateEv
0000000000004e30 P _ZNSolsEl
0000000000004e40 P strlen
0000000000004e50 P __cxa_guard_abort
0000000000004e60 P _ZN2cv11HoughLinesPERKNS_11_InputArrayERKNS_12_OutputArrayEddidd
0000000000004e70 P _ZN2cv3Mat10deallocateEv
0000000000004e80 P _ZN2cv17CascadeClassifier16detectMultiScaleERKNS_11_InputArrayERSt6vectorINS_5Rect_IiEESaIS6_EEdiiNS_5Size_IiEESB_
0000000000004e90 P _ZdlPv
0000000000004ea0 P __cxa_guard_release
0000000000004eb0 P _ZStlsISt11char_traitsIcEERSt13basic_ostreamIcT_ES5_PKc
0000000000004ec0 P __gxx_personality_v0
0000000000004ed0 P _ZNK2cv17CommandLineParser3hasERKNS_6StringE
0000000000004ee0 P _Unwind_Resume
0000000000004ef0 P _ZNSt8ios_base4InitD1Ev
0000000000004f00 P _ZStlsISt11char_traitsIcEERSt13basic_ostreamIcT_ES5_c
0000000000004f10 P _ZNSt7__cxx1112basic_stringIcSt11char_traitsIcESaIcEE6appendEPKc
0000000000004f20 P _ZN2cv17CommandLineParserD1Ev
0000000000004f30 P _ZNK2cv17CascadeClassifier5emptyEv
0000000000004f40 P _ZNSt7__cxx1112basic_stringIcSt11char_traitsIcESaIcEED1Ev
0000000000004f50 P __cxa_end_catch
0000000000004f60 P _ZNSt14basic_ofstreamIcSt11char_traitsIcEED1Ev
0000000000004f70 P _ZN2cv17CommandLineParserC1EiPKPKcRKNS_6StringE
0000000000004f80 P _ZNSt7__cxx1112basic_stringIcSt11char_traitsIcESaIcEE7reserveEm
0000000000004f90 P _ZNSt7__cxx1112basic_stringIcSt11char_traitsIcESaIcEEC1EPKcRKS3_
0000000000004fa0 P _ZNSolsEd
0000000000004fb0 P _ZN2cv12getTickCountEv
0000000000004fc0 P _ZNSt7__cxx1112basic_stringIcSt11char_traitsIcESaIcEE6appendERKS4_
0000000000004fd0 P __cxa_atexit
0000000000004fe0 P _ZN2cv11namedWindowERKNS_6StringEi
0000000000004ff0 P _ZNSt7__cxx1119basic_ostringstreamIcSt11char_traitsIcESaIcEED1Ev
0000000000005000 P _ZNKSt7__cxx1112basic_stringIcSt11char_traitsIcESaIcEE7compareEPKc
0000000000005010 P _ZN2cv17CascadeClassifier4loadERKNS_6StringE
0000000000005020 P mcount
0000000000005030 P _ZNSt14basic_ofstreamIcSt11char_traitsIcEE5closeEv
0000000000005040 P _ZN2cv8fastFreeEPv
0000000000005050 P __libc_start_main
0000000000005060 P _ZNK2cv17CommandLineParser11printErrorsEv
0000000000005070 P _ZNSaIcEC1Ev
0000000000005080 P _ZN2cv5CannyERKNS_11_InputArrayERKNS_12_OutputArrayEddib
0000000000005090 P _ZN2cv6imshowERKNS_6StringERKNS_11_InputArrayE
00000000000050a0 P _ZSt4endlIcSt11char_traitsIcEERSt13basic_ostreamIT_T0_ES6_
00000000000050b0 P _ZNSt8ios_base4InitC1Ev
00000000000050c0 P _ZNSolsEPFRSoS_E
00000000000050d0 P _ZNSt14basic_ofstreamIcSt11char_traitsIcEE4openEPKcSt13_Ios_Openmode
00000000000050e0 P __monstartup
00000000000050f0 P _ZN2cv6resizeERKNS_11_InputArrayERKNS_12_OutputArrayENS_5Size_IiEEddi
0000000000005100 P _ZN2cv6circleERKNS_17_InputOutputArrayENS_6Point_IiEEiRKNS_7Scalar_IdEEiii
0000000000005110 P _mcleanup
0000000000005120 P _ZN2cv17CascadeClassifierC1Ev
0000000000005130 P _ZNSt7__cxx1119basic_ostringstreamIcSt11char_traitsIcESaIcEEC1ESt13_Ios_Openmode
0000000000005140 P _ZNSt7__cxx1112basic_stringIcSt11char_traitsIcESaIcEEC1EPKcmRKS3_
0000000000005150 P _ZNKSt7__cxx1119basic_ostringstreamIcSt11char_traitsIcESaIcEE3strEv
0000000000005160 P _ZNSaIcED1Ev
0000000000005170 P __dynsym_end
0000000000005170 T _start
00000000000051a0 T __gmon_start__
00000000000052a6 t _ZL7cvRoundd
00000000000052e4 t _ZN2cvlsERSoRKNS_6StringE
0000000000005319 t _ZL7cvPointii
0000000000005377 T _Z7displayN2cv6StringE
000000000000551f T _Z10houghlinesN2cv6StringE
00000000000058c0 T _Z4helpv
0000000000005990 T _Z10detectFaceRN2cv3MatERNS_17CascadeClassifierES3_d
00000000000066d8 T _Z14face_detectionN2cv6StringE
0000000000006c66 T _Z10write_fileN2cv6StringEb
0000000000006d86 t _ZL15execute_commandNSt7__cxx1112basic_stringIcSt11char_traitsIcESaIcEEEN2cv6StringEibb
00000000000076d3 t _ZL15execute_commandNSt7__cxx1112basic_stringIcSt11char_traitsIcESaIcEEEb
00000000000077a4 T _Z7run_allv
0000000000007a5c T main
0000000000007ea8 t _ZN2cvL13saturate_castIiEET_i
0000000000007ebd t __tcf_0
0000000000007ef2 t _Z41__static_initialization_and_destruction_0ii
00000000000080cc t _GLOBAL__sub_I__Z7displayN2cv6StringE
00000000000080e6 w _ZNSt11char_traitsIcE6lengthEPKc
000000000000811c w _ZN2cv6StringC2Ev
0000000000008148 w _ZN2cv6StringC1ERKS0_
000000000000819a w _ZN2cv6StringC1EPKc
000000000000820c w _ZN2cv6StringD2Ev
000000000000822c w _ZNK2cv6String5c_strEv
000000000000825a w _ZN2cv7Scalar_IdEC1ERKS1_
0000000000008286 w _ZN2cv11_InputArray4initEiPKv
00000000000082b6 w _ZN2cv11_InputArrayC2Ev
00000000000082f0 w _ZN2cv11_InputArrayC1ERKNS_3MatE
000000000000832e w _ZN2cv11_InputArrayD2Ev
0000000000008342 w _ZN2cv12_OutputArrayC2Ev
0000000000008378 w _ZN2cv12_OutputArrayC2ERNS_3MatE
00000000000083b2 w _ZN2cv12_OutputArrayD2Ev
00000000000083d2 w _ZN2cv17_InputOutputArrayC1ERNS_3MatE
000000000000840c w _ZN2cv3MatC2Ev
00000000000084be w _ZN2cv3MatD2Ev
0000000000008504 w _ZN2cv3MataSERKS0_
000000000000868e w _ZN2cv3Mat7releaseEv
000000000000875e w _ZNK2cv3MatclERKNS_5Rect_IiEE
0000000000008794 w _ZNK2cv3Mat5emptyEv
00000000000087d2 w _ZNK2cv3Mat5totalEv
0000000000008854 w _ZN2cv7MatSizeC1EPi
0000000000008878 w _ZNK2cv7MatSizeixEi
00000000000088a2 w _ZN2cv7MatStepC1Ev
00000000000088e4 w _ZNK2cv7MatStepixEi
000000000000890e w _ZN2cv7MatStepixEi
0000000000008938 w _ZStorSt13_Ios_OpenmodeS_
0000000000008956 w _ZN2cv6StringC1ERKNSt7__cxx1112basic_stringIcSt11char_traitsIcESaIcEEE
00000000000089e6 w _ZNK2cv6StringcvNSt7__cxx1112basic_stringIcSt11char_traitsIcESaIcEEEB5cxx11Ev
0000000000008a7e w _ZN7CvPointC2Eii
0000000000008aac w _ZN2cv17_InputOutputArrayD1Ev
0000000000008acc w _ZN2cv3VecIdLi4EEC2ERKS1_
0000000000008af8 w _ZN2cv5Size_IiEC2Ev
0000000000008b22 w _ZN2cv5Size_IiEC2Eii
0000000000008b50 w _ZN2cv6Point_IiEC2Eii
0000000000008b7e w _ZN2cv6Point_IiEC2ERKS1_
0000000000008bb0 w _ZNK2cv17CommandLineParser3getINS_6StringEEET_ib
0000000000008c44 w _ZN2cv6Point_IiEC1Ev
0000000000008c6e w _ZN2cv5Rect_IiEC2ERKS1_
0000000000008cbc w _ZNSt6vectorIN2cv5Rect_IiEESaIS2_EEC1Ev
0000000000008cdc w _ZNSt6vectorIN2cv5Rect_IiEESaIS2_EED1Ev
0000000000008d46 w _ZNSt6vectorIN2cv3VecIiLi4EEESaIS2_EEC1Ev
0000000000008d66 w _ZNSt6vectorIN2cv3VecIiLi4EEESaIS2_EED2Ev
0000000000008dd0 w _ZN2cv12_OutputArrayC1INS_3VecIiLi4EEEEERSt6vectorIT_SaIS5_EE
0000000000008e0a w _ZN2cv7Scalar_IdEC2Edddd
0000000000008e76 w _ZNKSt6vectorIN2cv5Rect_IiEESaIS2_EE4sizeEv
0000000000008ea6 w _ZNSt6vectorIN2cv5Rect_IiEESaIS2_EEixEm
0000000000008ed0 w _ZNK7CvPointcvN2cv6Point_IT_EEIiEEv
0000000000008f20 w _ZStplIcSt11char_traitsIcESaIcEENSt7__cxx1112basic_stringIT_T0_T1_EERKS8_PKS5_
0000000000008faa w _ZStplIcSt11char_traitsIcESaIcEENSt7__cxx1112basic_stringIT_T0_T1_EEPKS5_RKS8_
0000000000009079 w _ZStplIcSt11char_traitsIcESaIcEENSt7__cxx1112basic_stringIT_T0_T1_EERKS8_SA_
0000000000009104 w _ZNK2cv17CommandLineParser3getIiEET_ib
000000000000916c w _ZNK2cv17CommandLineParser3getIbEET_ib
00000000000091d2 w _ZN2cv4MatxIdLi4ELi1EEC2EPKd
0000000000009224 w _ZN2cv3VecIdLi4EEC1Ev
0000000000009244 w _ZNSt12_Vector_baseIN2cv5Rect_IiEESaIS2_EE12_Vector_implD1Ev
0000000000009264 w _ZNSt12_Vector_baseIN2cv5Rect_IiEESaIS2_EEC2Ev
0000000000009284 w _ZNSt12_Vector_baseIN2cv5Rect_IiEESaIS2_EED2Ev
00000000000092fa w _ZNSt12_Vector_baseIN2cv5Rect_IiEESaIS2_EE19_M_get_Tp_allocatorEv
0000000000009311 w _ZSt8_DestroyIPN2cv5Rect_IiEES2_EvT_S4_RSaIT0_E
0000000000009340 w _ZNSt12_Vector_baseIN2cv3VecIiLi4EEESaIS2_EE12_Vector_implD1Ev
0000000000009360 w _ZNSt12_Vector_baseIN2cv3VecIiLi4EEESaIS2_EEC1Ev
0000000000009380 w _ZNSt12_Vector_baseIN2cv3VecIiLi4EEESaIS2_EED2Ev
00000000000093f6 w _ZNSt12_Vector_baseIN2cv3VecIiLi4EEESaIS2_EE19_M_get_Tp_allocatorEv
000000000000940d w _ZSt8_DestroyIPN2cv3VecIiLi4EEES2_EvT_S4_RSaIT0_E
000000000000943c w _ZN2cv4MatxIdLi4ELi1EEC1Ev
0000000000009476 w _ZNSt12_Vector_baseIN2cv5Rect_IiEESaIS2_EE12_Vector_implC2Ev
00000000000094ba w _ZNSaIN2cv5Rect_IiEEED2Ev
00000000000094da w _ZNSt12_Vector_baseIN2cv5Rect_IiEESaIS2_EE13_M_deallocateEPS2_m
0000000000009514 w _ZSt8_DestroyIPN2cv5Rect_IiEEEvT_S4_
0000000000009540 w _ZNSt12_Vector_baseIN2cv3VecIiLi4EEESaIS2_EE12_Vector_implC1Ev
0000000000009584 w _ZNSaIN2cv3VecIiLi4EEEED1Ev
00000000000095a4 w _ZNSt12_Vector_baseIN2cv3VecIiLi4EEESaIS2_EE13_M_deallocateEPS2_m
00000000000095de w _ZSt8_DestroyIPN2cv3VecIiLi4EEEEvT_S4_
000000000000960a w _ZNSaIN2cv5Rect_IiEEEC1Ev
000000000000962a w _ZN9__gnu_cxx13new_allocatorIN2cv5Rect_IiEEED2Ev
000000000000963e w _ZN9__gnu_cxx14__alloc_traitsISaIN2cv5Rect_IiEEEE10deallocateERS4_PS3_m
0000000000009671 w _ZNSt12_Destroy_auxILb1EE9__destroyIPN2cv5Rect_IiEEEEvT_S6_
000000000000968a w _ZNSaIN2cv3VecIiLi4EEEEC2Ev
00000000000096aa w _ZN9__gnu_cxx13new_allocatorIN2cv3VecIiLi4EEEED1Ev
00000000000096be w _ZN9__gnu_cxx14__alloc_traitsISaIN2cv3VecIiLi4EEEEE10deallocateERS4_PS3_m
00000000000096f1 w _ZNSt12_Destroy_auxILb1EE9__destroyIPN2cv3VecIiLi4EEEEEvT_S6_
000000000000970a w _ZN9__gnu_cxx13new_allocatorIN2cv5Rect_IiEEEC2Ev
000000000000971e w _ZN9__gnu_cxx13new_allocatorIN2cv5Rect_IiEEE10deallocateEPS3_m
0000000000009746 w _ZN9__gnu_cxx13new_allocatorIN2cv3VecIiLi4EEEEC2Ev
000000000000975a w _ZN9__gnu_cxx13new_allocatorIN2cv3VecIiLi4EEEE10deallocateEPS3_m
0000000000009790 T __libc_csu_init
0000000000009800 T __libc_csu_fini
0000000000009810 t atexit
0000000000009839 t __sym_end
