0000000000000f00 P memcpy
0000000000000f10 P _ZN2cv3Mat8copySizeERKS0_
0000000000000f20 P _ZN2cv6imreadERKNS_6StringEi
0000000000000f30 P __cyg_profile_func_exit
0000000000000f40 P __cyg_profile_func_enter
0000000000000f50 P _ZN2cv6String8allocateEm
0000000000000f60 P __stack_chk_fail
0000000000000f70 P _ZNSolsEi
0000000000000f80 P _ZN2cv6String10deallocateEv
0000000000000f90 P __gmon_start__
0000000000000fa0 P strlen
0000000000000fb0 P _ZN2cv3Mat10deallocateEv
0000000000000fc0 P _ZStlsISt11char_traitsIcEERSt13basic_ostreamIcT_ES5_PKc
0000000000000fd0 P __gxx_personality_v0
0000000000000fe0 P _Unwind_Resume
0000000000000ff0 P _ZNSt8ios_base4InitD1Ev
0000000000001000 P _ZN2cv7waitKeyEi
0000000000001010 P __cxa_atexit
0000000000001020 P _ZN2cv11namedWindowERKNS_6StringEi
0000000000001030 P _ZN2cv8fastFreeEPv
0000000000001040 P __libc_start_main
0000000000001050 P _ZN2cv6imshowERKNS_6StringERKNS_11_InputArrayE
0000000000001060 P _ZSt4endlIcSt11char_traitsIcEERSt13basic_ostreamIT_T0_ES6_
0000000000001070 P _ZNSt8ios_base4InitC1Ev
0000000000001080 P _ZNSolsEPFRSoS_E
0000000000001090 P __dynsym_end
0000000000001090 T _start
0000000000001186 T _Z7displayiPPc
0000000000001422 T main
00000000000014f9 t _Z41__static_initialization_and_destruction_0ii
000000000000157f t _GLOBAL__sub_I__Z7displayiPPc
00000000000015b6 w _ZN2cv6StringC1EPKc
0000000000001678 w _ZN2cv6StringD2Ev
00000000000016dc w _ZN2cv11_InputArray4initEiPKv
000000000000172a w _ZN2cv11_InputArrayC1ERKNS_3MatE
0000000000001784 w _ZN2cv11_InputArrayD2Ev
00000000000017b6 w _ZN2cv3MatC2Ev
0000000000001886 w _ZN2cv3MatD2Ev
000000000000190e w _ZN2cv3MataSERKS0_
0000000000001ad8 w _ZN2cv3Mat7releaseEv
0000000000001bea w _ZN2cv7MatSizeC1EPi
0000000000001c2a w _ZN2cv7MatStepC1Ev
0000000000001c8a w _ZNK2cv7MatStepixEi
0000000000001cdc w _ZN2cv7MatStepixEi
0000000000001d2e w _ZN2cv5Size_IiEC2Ev
0000000000001d80 T __libc_csu_init
0000000000001df0 T __libc_csu_fini
0000000000001df2 T __sym_end
