0000000000000eb0 P memcpy
0000000000000ec0 P _ZN2cv3Mat8copySizeERKS0_
0000000000000ed0 P _ZN2cv6imreadERKNS_6StringEi
0000000000000ee0 P _ZN2cv6String8allocateEm
0000000000000ef0 P __stack_chk_fail
0000000000000f00 P _ZNSolsEi
0000000000000f10 P _ZN2cv6String10deallocateEv
0000000000000f20 P __gmon_start__
0000000000000f30 P strlen
0000000000000f40 P _ZN2cv3Mat10deallocateEv
0000000000000f50 P _ZStlsISt11char_traitsIcEERSt13basic_ostreamIcT_ES5_PKc
0000000000000f60 P __gxx_personality_v0
0000000000000f70 P _Unwind_Resume
0000000000000f80 P _ZNSt8ios_base4InitD1Ev
0000000000000f90 P _ZN2cv7waitKeyEi
0000000000000fa0 P __cxa_atexit
0000000000000fb0 P _ZN2cv11namedWindowERKNS_6StringEi
0000000000000fc0 P mcount
0000000000000fd0 P _ZN2cv8fastFreeEPv
0000000000000fe0 P __libc_start_main
0000000000000ff0 P _ZN2cv6imshowERKNS_6StringERKNS_11_InputArrayE
0000000000001000 P _ZSt4endlIcSt11char_traitsIcEERSt13basic_ostreamIT_T0_ES6_
0000000000001010 P _ZNSt8ios_base4InitC1Ev
0000000000001020 P _ZNSolsEPFRSoS_E
0000000000001030 P __dynsym_end
0000000000001030 T _start
0000000000001126 T _Z7displayiPPc
000000000000138c T main
000000000000141d t _Z41__static_initialization_and_destruction_0ii
0000000000001460 t _GLOBAL__sub_I__Z7displayiPPc
000000000000147a w _ZN2cv6StringC1EPKc
00000000000014ec w _ZN2cv6StringD2Ev
000000000000150c w _ZN2cv11_InputArray4initEiPKv
000000000000153c w _ZN2cv11_InputArrayC1ERKNS_3MatE
000000000000157a w _ZN2cv11_InputArrayD2Ev
000000000000158e w _ZN2cv3MatC2Ev
0000000000001640 w _ZN2cv3MatD2Ev
0000000000001686 w _ZN2cv3MataSERKS0_
0000000000001810 w _ZN2cv3Mat7releaseEv
00000000000018e0 w _ZN2cv7MatSizeC1EPi
0000000000001904 w _ZN2cv7MatStepC1Ev
0000000000001946 w _ZNK2cv7MatStepixEi
0000000000001970 w _ZN2cv7MatStepixEi
000000000000199a w _ZN2cv5Size_IiEC2Ev
00000000000019d0 T __libc_csu_init
0000000000001a40 T __libc_csu_fini
0000000000001a42 T __sym_end
